; ModuleID = 'source-C-CXX/42/328.cpp'
source_filename = "source-C-CXX/42/328.cpp"
target datalayout = "e-m:e-p270:32:32-p271:32:32-p272:64:64-i64:64-f80:128-n8:16:32:64-S128"
target triple = "x86_64-pc-linux-gnu"

%"class.std::ios_base::Init" = type { i8 }
%"class.std::basic_istream" = type { i32 (...)**, i64, %"class.std::basic_ios" }
%"class.std::basic_ios" = type { %"class.std::ios_base", %"class.std::basic_ostream"*, i8, i8, %"class.std::basic_streambuf"*, %"class.std::ctype"*, %"class.std::num_put"*, %"class.std::num_get"* }
%"class.std::ios_base" = type { i32 (...)**, i64, i64, i32, i32, i32, %"struct.std::ios_base::_Callback_list"*, %"struct.std::ios_base::_Words", [8 x %"struct.std::ios_base::_Words"], i32, %"struct.std::ios_base::_Words"*, %"class.std::locale" }
%"struct.std::ios_base::_Callback_list" = type { %"struct.std::ios_base::_Callback_list"*, void (i32, %"class.std::ios_base"*, i32)*, i32, i32 }
%"struct.std::ios_base::_Words" = type { i8*, i64 }
%"class.std::locale" = type { %"class.std::locale::_Impl"* }
%"class.std::locale::_Impl" = type { i32, %"class.std::locale::facet"**, i64, %"class.std::locale::facet"**, i8** }
%"class.std::locale::facet" = type <{ i32 (...)**, i32, [4 x i8] }>
%"class.std::basic_ostream" = type { i32 (...)**, %"class.std::basic_ios" }
%"class.std::basic_streambuf" = type { i32 (...)**, i8*, i8*, i8*, i8*, i8*, i8*, %"class.std::locale" }
%"class.std::ctype" = type <{ %"class.std::locale::facet.base", [4 x i8], %struct.__locale_struct*, i8, [7 x i8], i32*, i32*, i16*, i8, [256 x i8], [256 x i8], i8, [6 x i8] }>
%"class.std::locale::facet.base" = type <{ i32 (...)**, i32 }>
%struct.__locale_struct = type { [13 x %struct.__locale_data*], i16*, i32*, i32*, [13 x i8*] }
%struct.__locale_data = type opaque
%"class.std::num_put" = type { %"class.std::locale::facet.base", [4 x i8] }
%"class.std::num_get" = type { %"class.std::locale::facet.base", [4 x i8] }

@_ZStL8__ioinit = internal global %"class.std::ios_base::Init" zeroinitializer, align 1
@__dso_handle = external hidden global i8
@_ZSt3cin = external global %"class.std::basic_istream", align 8
@_ZSt4cout = external global %"class.std::basic_ostream", align 8
@llvm.global_ctors = appending global [1 x { i32, void ()*, i8* }] [{ i32, void ()*, i8* } { i32 65535, void ()* @_GLOBAL__sub_I_328.cpp, i8* null }]

declare void @_ZNSt8ios_base4InitC1Ev(%"class.std::ios_base::Init"* nonnull align 1 dereferenceable(1)) unnamed_addr #0

; Function Attrs: nounwind
declare void @_ZNSt8ios_base4InitD1Ev(%"class.std::ios_base::Init"* nonnull align 1 dereferenceable(1)) unnamed_addr #1

; Function Attrs: nofree nounwind
declare i32 @__cxa_atexit(void (i8*)*, i8*, i8*) local_unnamed_addr #2

; Function Attrs: mustprogress nofree nounwind sspstrong uwtable
define dso_local i32 @_Z11PrimeNumberi(i32 %0) local_unnamed_addr #3 {
  %2 = sitofp i32 %0 to double
  %3 = tail call double @sqrt(double %2) #9
  %4 = fcmp ult double %3, 2.000000e+00
  br i1 %4, label %14, label %9

5:                                                ; preds = %9
  %6 = sitofp i32 %13 to double
  %7 = tail call double @sqrt(double %2) #9
  %8 = fcmp ult double %7, %6
  br i1 %8, label %14, label %9, !llvm.loop !5

9:                                                ; preds = %1, %5
  %10 = phi i32 [ %13, %5 ], [ 2, %1 ]
  %11 = srem i32 %0, %10
  %12 = icmp eq i32 %11, 0
  %13 = add nuw nsw i32 %10, 1
  br i1 %12, label %14, label %5

14:                                               ; preds = %9, %5, %1
  %15 = phi i32 [ 1, %1 ], [ 1, %5 ], [ 0, %9 ]
  ret i32 %15
}

; Function Attrs: argmemonly mustprogress nofree nosync nounwind willreturn
declare void @llvm.lifetime.start.p0i8(i64 immarg, i8* nocapture) #4

; Function Attrs: argmemonly mustprogress nofree nosync nounwind willreturn
declare void @llvm.lifetime.end.p0i8(i64 immarg, i8* nocapture) #4

; Function Attrs: mustprogress norecurse sspstrong uwtable
define dso_local i32 @main() local_unnamed_addr #5 {
  %1 = alloca i8, align 1
  %2 = alloca i32, align 4
  %3 = bitcast i32* %2 to i8*
  call void @llvm.lifetime.start.p0i8(i64 4, i8* nonnull %3) #9
  %4 = call nonnull align 8 dereferenceable(16) %"class.std::basic_istream"* @_ZNSirsERi(%"class.std::basic_istream"* nonnull align 8 dereferenceable(16) @_ZSt3cin, i32* nonnull align 4 dereferenceable(4) %2)
  %5 = load i32, i32* %2, align 4, !tbaa !7
  %6 = icmp slt i32 %5, 6
  br i1 %6, label %76, label %7

7:                                                ; preds = %0, %71
  %8 = phi i32 [ %72, %71 ], [ 3, %0 ]
  %9 = sitofp i32 %8 to double
  %10 = call double @sqrt(double %9) #9
  %11 = fcmp ult double %10, 2.000000e+00
  br i1 %11, label %21, label %16

12:                                               ; preds = %16
  %13 = sitofp i32 %20 to double
  %14 = call double @sqrt(double %9) #9
  %15 = fcmp ult double %14, %13
  br i1 %15, label %21, label %16, !llvm.loop !5

16:                                               ; preds = %7, %12
  %17 = phi i32 [ %20, %12 ], [ 2, %7 ]
  %18 = urem i32 %8, %17
  %19 = icmp eq i32 %18, 0
  %20 = add nuw nsw i32 %17, 1
  br i1 %19, label %71, label %12

21:                                               ; preds = %12, %7
  %22 = load i32, i32* %2, align 4, !tbaa !7
  %23 = sub nsw i32 %22, %8
  %24 = sitofp i32 %23 to double
  %25 = call double @sqrt(double %24) #9
  %26 = fcmp ult double %25, 2.000000e+00
  br i1 %26, label %36, label %31

27:                                               ; preds = %31
  %28 = sitofp i32 %35 to double
  %29 = call double @sqrt(double %24) #9
  %30 = fcmp ult double %29, %28
  br i1 %30, label %36, label %31, !llvm.loop !5

31:                                               ; preds = %21, %27
  %32 = phi i32 [ %35, %27 ], [ 2, %21 ]
  %33 = srem i32 %23, %32
  %34 = icmp eq i32 %33, 0
  %35 = add nuw nsw i32 %32, 1
  br i1 %34, label %71, label %27

36:                                               ; preds = %27, %21
  %37 = call nonnull align 8 dereferenceable(8) %"class.std::basic_ostream"* @_ZNSolsEi(%"class.std::basic_ostream"* nonnull align 8 dereferenceable(8) @_ZSt4cout, i32 %8)
  call void @llvm.lifetime.start.p0i8(i64 1, i8* nonnull %1)
  store i8 32, i8* %1, align 1, !tbaa !11
  %38 = call nonnull align 8 dereferenceable(8) %"class.std::basic_ostream"* @_ZSt16__ostream_insertIcSt11char_traitsIcEERSt13basic_ostreamIT_T0_ES6_PKS3_l(%"class.std::basic_ostream"* nonnull align 8 dereferenceable(8) %37, i8* nonnull %1, i64 1)
  call void @llvm.lifetime.end.p0i8(i64 1, i8* nonnull %1)
  %39 = load i32, i32* %2, align 4, !tbaa !7
  %40 = sub nsw i32 %39, %8
  %41 = call nonnull align 8 dereferenceable(8) %"class.std::basic_ostream"* @_ZNSolsEi(%"class.std::basic_ostream"* nonnull align 8 dereferenceable(8) %38, i32 %40)
  %42 = bitcast %"class.std::basic_ostream"* %41 to i8**
  %43 = load i8*, i8** %42, align 8, !tbaa !12
  %44 = getelementptr i8, i8* %43, i64 -24
  %45 = bitcast i8* %44 to i64*
  %46 = load i64, i64* %45, align 8
  %47 = bitcast %"class.std::basic_ostream"* %41 to i8*
  %48 = add nsw i64 %46, 240
  %49 = getelementptr inbounds i8, i8* %47, i64 %48
  %50 = bitcast i8* %49 to %"class.std::ctype"**
  %51 = load %"class.std::ctype"*, %"class.std::ctype"** %50, align 8, !tbaa !14
  %52 = icmp eq %"class.std::ctype"* %51, null
  br i1 %52, label %53, label %54

53:                                               ; preds = %36
  call void @_ZSt16__throw_bad_castv() #10
  unreachable

54:                                               ; preds = %36
  %55 = getelementptr inbounds %"class.std::ctype", %"class.std::ctype"* %51, i64 0, i32 8
  %56 = load i8, i8* %55, align 8, !tbaa !18
  %57 = icmp eq i8 %56, 0
  br i1 %57, label %61, label %58

58:                                               ; preds = %54
  %59 = getelementptr inbounds %"class.std::ctype", %"class.std::ctype"* %51, i64 0, i32 9, i64 10
  %60 = load i8, i8* %59, align 1, !tbaa !11
  br label %67

61:                                               ; preds = %54
  call void @_ZNKSt5ctypeIcE13_M_widen_initEv(%"class.std::ctype"* nonnull align 8 dereferenceable(570) %51)
  %62 = bitcast %"class.std::ctype"* %51 to i8 (%"class.std::ctype"*, i8)***
  %63 = load i8 (%"class.std::ctype"*, i8)**, i8 (%"class.std::ctype"*, i8)*** %62, align 8, !tbaa !12
  %64 = getelementptr inbounds i8 (%"class.std::ctype"*, i8)*, i8 (%"class.std::ctype"*, i8)** %63, i64 6
  %65 = load i8 (%"class.std::ctype"*, i8)*, i8 (%"class.std::ctype"*, i8)** %64, align 8
  %66 = call signext i8 %65(%"class.std::ctype"* nonnull align 8 dereferenceable(570) %51, i8 signext 10)
  br label %67

67:                                               ; preds = %58, %61
  %68 = phi i8 [ %60, %58 ], [ %66, %61 ]
  %69 = call nonnull align 8 dereferenceable(8) %"class.std::basic_ostream"* @_ZNSo3putEc(%"class.std::basic_ostream"* nonnull align 8 dereferenceable(8) %41, i8 signext %68)
  %70 = call nonnull align 8 dereferenceable(8) %"class.std::basic_ostream"* @_ZNSo5flushEv(%"class.std::basic_ostream"* nonnull align 8 dereferenceable(8) %69)
  br label %71

71:                                               ; preds = %16, %31, %67
  %72 = add nuw nsw i32 %8, 2
  %73 = load i32, i32* %2, align 4, !tbaa !7
  %74 = sdiv i32 %73, 2
  %75 = icmp sgt i32 %72, %74
  br i1 %75, label %76, label %7, !llvm.loop !20

76:                                               ; preds = %71, %0
  call void @llvm.lifetime.end.p0i8(i64 4, i8* nonnull %3) #9
  ret i32 0
}

declare nonnull align 8 dereferenceable(16) %"class.std::basic_istream"* @_ZNSirsERi(%"class.std::basic_istream"* nonnull align 8 dereferenceable(16), i32* nonnull align 4 dereferenceable(4)) local_unnamed_addr #0

declare nonnull align 8 dereferenceable(8) %"class.std::basic_ostream"* @_ZNSolsEi(%"class.std::basic_ostream"* nonnull align 8 dereferenceable(8), i32) local_unnamed_addr #0

; Function Attrs: mustprogress nofree nounwind willreturn
declare double @sqrt(double) local_unnamed_addr #6

declare nonnull align 8 dereferenceable(8) %"class.std::basic_ostream"* @_ZSt16__ostream_insertIcSt11char_traitsIcEERSt13basic_ostreamIT_T0_ES6_PKS3_l(%"class.std::basic_ostream"* nonnull align 8 dereferenceable(8), i8*, i64) local_unnamed_addr #0

declare nonnull align 8 dereferenceable(8) %"class.std::basic_ostream"* @_ZNSo3putEc(%"class.std::basic_ostream"* nonnull align 8 dereferenceable(8), i8 signext) local_unnamed_addr #0

declare nonnull align 8 dereferenceable(8) %"class.std::basic_ostream"* @_ZNSo5flushEv(%"class.std::basic_ostream"* nonnull align 8 dereferenceable(8)) local_unnamed_addr #0

; Function Attrs: noreturn
declare void @_ZSt16__throw_bad_castv() local_unnamed_addr #7

declare void @_ZNKSt5ctypeIcE13_M_widen_initEv(%"class.std::ctype"* nonnull align 8 dereferenceable(570)) local_unnamed_addr #0

; Function Attrs: sspstrong uwtable
define internal void @_GLOBAL__sub_I_328.cpp() #8 section ".text.startup" {
  tail call void @_ZNSt8ios_base4InitC1Ev(%"class.std::ios_base::Init"* nonnull align 1 dereferenceable(1) @_ZStL8__ioinit)
  %1 = tail call i32 @__cxa_atexit(void (i8*)* bitcast (void (%"class.std::ios_base::Init"*)* @_ZNSt8ios_base4InitD1Ev to void (i8*)*), i8* getelementptr inbounds (%"class.std::ios_base::Init", %"class.std::ios_base::Init"* @_ZStL8__ioinit, i64 0, i32 0), i8* nonnull @__dso_handle) #9
  ret void
}


!llvm.module.flags = !{!0, !1, !2, !3}
!llvm.ident = !{!4}

!0 = !{i32 1, !"wchar_size", i32 4}
!1 = !{i32 7, !"PIC Level", i32 2}
!2 = !{i32 7, !"PIE Level", i32 2}
!3 = !{i32 7, !"uwtable", i32 1}
!4 = !{!"clang version 13.0.0"}
!5 = distinct !{!5, !6}
!6 = !{!"llvm.loop.mustprogress"}
!7 = !{!8, !8, i64 0}
!8 = !{!"int", !9, i64 0}
!9 = !{!"omnipotent char", !10, i64 0}
!10 = !{!"Simple C++ TBAA"}
!11 = !{!9, !9, i64 0}
!12 = !{!13, !13, i64 0}
!13 = !{!"vtable pointer", !10, i64 0}
!14 = !{!15, !16, i64 240}
!15 = !{!"_ZTSSt9basic_iosIcSt11char_traitsIcEE", !16, i64 216, !9, i64 224, !17, i64 225, !16, i64 232, !16, i64 240, !16, i64 248, !16, i64 256}
!16 = !{!"any pointer", !9, i64 0}
!17 = !{!"bool", !9, i64 0}
!18 = !{!19, !9, i64 56}
!19 = !{!"_ZTSSt5ctypeIcE", !16, i64 16, !17, i64 24, !16, i64 32, !16, i64 40, !16, i64 48, !9, i64 56, !9, i64 57, !9, i64 313, !9, i64 569}
!20 = distinct !{!20, !6}
